ccopy_reg
_reconstructor
p0
(cplayer
Player
p1
c__builtin__
object
p2
Ntp3
Rp4
(dp5
S'strength'
p6
F77.30358849382824
sS'name'
p7
S'Jelena'
p8
sS'gender'
p9
S'weiblich'
p10
sS'age'
p11
F39.0
sS'location'
p12
S'start'
p13
sS'items'
p14
NsS'hitpoints'
p15
F72.58906844172779
sS'mount'
p16
Nsb.