ccopy_reg
_reconstructor
p0
(cplayer
Player
p1
c__builtin__
object
p2
Ntp3
Rp4
(dp5
S'strength'
p6
F84.68747564172718
sS'name'
p7
S'Birgit'
p8
sS'agent_to_talk'
p9
NsS'gender'
p10
S'weiblich'
p11
sS'age'
p12
F63.0
sS'location'
p13
S'start'
p14
sS'items'
p15
NsS'hitpoints'
p16
F89.10259006875798
sS'mount'
p17
Nsb.