ccopy_reg
_reconstructor
p0
(cplayer
Player
p1
c__builtin__
object
p2
Ntp3
Rp4
(dp5
S'strength'
p6
F1162.290407895913
sS'name'
p7
S'Admin'
p8
sS'gender'
p9
S'm\x84nnlich'
p10
sS'age'
p11
F999.0
sS'location'
p12
S'weggabelung'
p13
sS'items'
p14
NsS'hitpoints'
p15
F1178.8106131281684
sS'mount'
p16
Nsb.