ccopy_reg
_reconstructor
p0
(cplayer
Player
p1
c__builtin__
object
p2
Ntp3
Rp4
(dp5
S'strength'
p6
F14.988110580822891
sS'name'
p7
S'James'
p8
sS'gender'
p9
S'junge'
p10
sS'age'
p11
F8.0
sS'location'
p12
S'start'
p13
sS'items'
p14
NsS'hitpoints'
p15
F14.621136226778715
sS'mount'
p16
Nsb.