ccopy_reg
_reconstructor
p0
(cplayer
Player
p1
c__builtin__
object
p2
Ntp3
Rp4
(dp5
S'strength'
p6
F35.845611916267075
sS'name'
p7
S'Horst'
p8
sS'gender'
p9
S'm\x84nnlich'
p10
sS'age'
p11
F27.0
sS'location'
p12
S'start'
p13
sS'items'
p14
NsS'hitpoints'
p15
F40.841992793270535
sS'mount'
p16
Nsb.