ccopy_reg
_reconstructor
p0
(cplayer
Player
p1
c__builtin__
object
p2
Ntp3
Rp4
(dp5
S'strength'
p6
F10.969633971484454
sS'name'
p7
S'Emma'
p8
sS'gender'
p9
S'weiblich'
p10
sS'age'
p11
F6.0
sS'location'
p12
S'start'
p13
sS'items'
p14
NsS'hitpoints'
p15
F11.057680584544395
sS'mount'
p16
Nsb.