ccopy_reg
_reconstructor
p0
(cplayer
Player
p1
c__builtin__
object
p2
Ntp3
Rp4
(dp5
S'strength'
p6
F8.546440065794432
sS'name'
p7
S'Luigi'
p8
sS'gender'
p9
S'm\x84nnlich'
p10
sS'age'
p11
F8.0
sS'location'
p12
S'start'
p13
sS'items'
p14
NsS'hitpoints'
p15
F9.222381823275413
sS'mount'
p16
Nsb.