ccopy_reg
_reconstructor
p0
(cplayer
Player
p1
c__builtin__
object
p2
Ntp3
Rp4
(dp5
S'strength'
p6
F24.6475961425209
sS'name'
p7
S'Katrin'
p8
sS'gender'
p9
S'weib'
p10
sS'age'
p11
F17.0
sS'location'
p12
S'start'
p13
sS'items'
p14
NsS'hitpoints'
p15
F17.4959062776149
sS'mount'
p16
Nsb.