ccopy_reg
_reconstructor
p0
(cplayer
Player
p1
c__builtin__
object
p2
Ntp3
Rp4
(dp5
S'strength'
p6
F63.15302442586499
sS'name'
p7
S'Martin Maurer'
p8
sS'gender'
p9
S'm\x84nnlich'
p10
sS'age'
p11
F37.0
sS'location'
p12
S'start'
p13
sS'items'
p14
NsS'hitpoints'
p15
F50.769681636027016
sS'mount'
p16
Nsb.