ccopy_reg
_reconstructor
p0
(cplayer
Player
p1
c__builtin__
object
p2
Ntp3
Rp4
(dp5
S'strength'
p6
F5.3499685074396615
sS'name'
p7
I1
sS'gender'
p8
I2
sS'age'
p9
I3
sS'location'
p10
I4
sS'items'
p11
I5
sS'hitpoints'
p12
F5.889478684607534
sS'mount'
p13
I6
sb.